; Function Attrs: mustprogress nounwind uwtable
define internal fastcc noundef zeroext i1 @"_ZZL24canReplaceGEPIdxWithZeroRN4llvm16InstCombinerImplEPNS_17GetElementPtrInstEPNS_11InstructionERjENK3$_1clEv"(ptr nocapture noundef nonnull readonly align 8 dereferenceable(32) %0) unnamed_addr #0 align 2 {
  %2 = alloca %"struct.llvm::SimplifyQuery", align 8
  %3 = alloca %"struct.llvm::KnownBits", align 8
  %4 = load ptr, ptr %0, align 8
  %5 = load i32, ptr %4, align 4
  %6 = getelementptr inbounds nuw i8, ptr %0, i64 8
  %7 = load ptr, ptr %6, align 8
  %8 = load ptr, ptr %7, align 8
  %9 = getelementptr inbounds nuw i8, ptr %8, i64 4
  %10 = load i32, ptr %9, align 4
  %11 = and i32 %10, 134217727
  %12 = getelementptr inbounds nuw i8, ptr %0, i64 16
  %13 = getelementptr inbounds nuw i8, ptr %0, i64 24
  %14 = getelementptr inbounds nuw i8, ptr %2, i64 32
  %15 = getelementptr inbounds nuw i8, ptr %3, i64 8
  %16 = getelementptr inbounds i8, ptr %3, i64 24
  %17 = getelementptr inbounds nuw i8, ptr %3, i64 16
  br label %18

18:                                               ; preds = %_ZN4llvm9KnownBitsD2Ev.exit, %1
  %.07.in = phi i32 [ %5, %1 ], [ %.07, %_ZN4llvm9KnownBitsD2Ev.exit ]
  %.07 = add i32 %.07.in, 1
  %.not = icmp eq i32 %.07, %11
  br i1 %.not, label %59, label %19

19:                                               ; preds = %18
  %20 = load ptr, ptr %12, align 8
  %21 = load ptr, ptr %6, align 8
  %22 = load ptr, ptr %21, align 8
  %23 = getelementptr inbounds nuw i8, ptr %22, i64 4
  %24 = load i32, ptr %23, align 4
  %25 = and i32 %24, 134217727
  %26 = zext nneg i32 %25 to i64
  %27 = sub nsw i64 0, %26
  %28 = getelementptr inbounds %"class.llvm::Use", ptr %22, i64 %27
  %29 = zext i32 %.07 to i64
  %30 = getelementptr inbounds %"class.llvm::Use", ptr %28, i64 %29
  %31 = load ptr, ptr %30, align 8
  %32 = load ptr, ptr %13, align 8
  %33 = load ptr, ptr %32, align 8
  call void @llvm.lifetime.start.p0(i64 64, ptr nonnull %2)
  %34 = getelementptr inbounds nuw i8, ptr %20, i64 88
  call void @llvm.memcpy.p0.p0.i64(ptr noundef nonnull align 8 dereferenceable(64) %2, ptr noundef nonnull align 8 dereferenceable(64) %34, i64 64, i1 false), !noalias !132
  store ptr %33, ptr %14, align 8, !alias.scope !135, !noalias !132
  call void @_ZN4llvm16computeKnownBitsEPKNS_5ValueEjRKNS_13SimplifyQueryE(ptr dead_on_unwind nonnull writable sret(%"struct.llvm::KnownBits") align 8 %3, ptr noundef %31, i32 noundef 0, ptr noundef nonnull align 8 dereferenceable(58) %2) #16
  call void @llvm.lifetime.end.p0(i64 64, ptr nonnull %2)
  %35 = load i32, ptr %15, align 8
  %36 = add i32 %35, -1
  %37 = and i32 %36, 63
  %38 = zext nneg i32 %37 to i64
  %39 = shl nuw i64 1, %38
  %40 = icmp ult i32 %35, 65
  %41 = load ptr, ptr %3, align 8
  %42 = lshr i32 %36, 6
  %43 = zext nneg i32 %42 to i64
  %44 = getelementptr inbounds i64, ptr %41, i64 %43
  %.in.i.i.i.i = select i1 %40, ptr %3, ptr %44
  %45 = load i64, ptr %.in.i.i.i.i, align 8
  %46 = and i64 %39, %45
  %.not8 = icmp eq i64 %46, 0
  %47 = load i32, ptr %16, align 8
  %48 = icmp ugt i32 %47, 64
  br i1 %48, label %49, label %_ZN4llvm5APIntD2Ev.exit.i

49:                                               ; preds = %19
  %50 = load ptr, ptr %17, align 8
  %51 = icmp eq ptr %50, null
  br i1 %51, label %_ZN4llvm5APIntD2Ev.exit.i, label %52

52:                                               ; preds = %49
  call void @_ZdaPv(ptr noundef nonnull %50) #18
  %.pre = load i32, ptr %15, align 8
  br label %_ZN4llvm5APIntD2Ev.exit.i

_ZN4llvm5APIntD2Ev.exit.i:                        ; preds = %52, %49, %19
  %53 = phi i32 [ %.pre, %52 ], [ %35, %49 ], [ %35, %19 ]
  %54 = icmp ugt i32 %53, 64
  br i1 %54, label %55, label %_ZN4llvm9KnownBitsD2Ev.exit

55:                                               ; preds = %_ZN4llvm5APIntD2Ev.exit.i
  %56 = load ptr, ptr %3, align 8
  %57 = icmp eq ptr %56, null
  br i1 %57, label %_ZN4llvm9KnownBitsD2Ev.exit, label %58

58:                                               ; preds = %55
  call void @_ZdaPv(ptr noundef nonnull %56) #18
  br label %_ZN4llvm9KnownBitsD2Ev.exit

_ZN4llvm9KnownBitsD2Ev.exit:                      ; preds = %_ZN4llvm5APIntD2Ev.exit.i, %55, %58
  br i1 %.not8, label %59, label %18

59:                                               ; preds = %_ZN4llvm9KnownBitsD2Ev.exit, %18
  ret i1 %.not
}